target datalayout = "e-m:e-p270:32:32-p271:32:32-p272:64:64-i64:64-i128:128-f80:128-n8:16:32:64-S128"
target triple = "x86_64-unknown-linux-gnu"

%"class.pugi::xml_node" = type { ptr }
%"struct.pugi::xml_node_struct" = type { i64, ptr, ptr, ptr, ptr, ptr, ptr, ptr }
%"class.std::__cxx11::basic_string" = type { %"struct.std::__cxx11::basic_string<char>::_Alloc_hider", i64, %union.anon }
%"struct.std::__cxx11::basic_string<char>::_Alloc_hider" = type { ptr }
%union.anon = type { i64, [8 x i8] }

; Function Attrs: mustprogress nounwind uwtable
define internal noundef i64 @_ZN4pugi4impl12_GLOBAL__N_19strlengthEPKc(ptr noundef %s) #0 {
entry:
  %s.addr = alloca ptr, align 8
  store ptr %s, ptr %s.addr, align 8
  %0 = load ptr, ptr %s.addr, align 8
  %call = call i64 @strlen(ptr noundef %0) #15
  ret i64 %call
}

; Function Attrs: mustprogress uwtable
define void @_ZNK4pugi8xml_node4pathB5cxx11Ec(ptr noalias sret(%"class.std::__cxx11::basic_string") align 8 %agg.result, ptr noundef nonnull align 8 dereferenceable(8) %this, i8 noundef signext %delimiter) #2 align 2 personality ptr @__gxx_personality_v0 {
entry:
  %result.ptr = alloca ptr, align 8
  %this.addr = alloca ptr, align 8
  %delimiter.addr = alloca i8, align 1
  %offset = alloca i64, align 8
  %i = alloca ptr, align 8
  %iname = alloca ptr, align 8
  %nrvo = alloca i1, align 1
  %exn.slot = alloca ptr, align 8
  %ehselector.slot = alloca i32, align 4
  %j = alloca ptr, align 8
  %jname = alloca ptr, align 8
  %length = alloca i64, align 8
  store ptr %agg.result, ptr %result.ptr, align 8
  store ptr %this, ptr %this.addr, align 8
  store i8 %delimiter, ptr %delimiter.addr, align 1
  %this1 = load ptr, ptr %this.addr, align 8
  %_root = getelementptr inbounds %"class.pugi::xml_node", ptr %this1, i32 0, i32 0
  %0 = load ptr, ptr %_root, align 8
  %tobool = icmp ne ptr %0, null
  br i1 %tobool, label %if.end, label %if.then

if.then:                                          ; preds = %entry
  call void @_ZNSt7__cxx1112basic_stringIcSt11char_traitsIcESaIcEEC1Ev(ptr noundef nonnull align 8 dereferenceable(32) %agg.result) #9
  br label %return

if.end:                                           ; preds = %entry
  store i64 0, ptr %offset, align 8
  %_root2 = getelementptr inbounds %"class.pugi::xml_node", ptr %this1, i32 0, i32 0
  %1 = load ptr, ptr %_root2, align 8
  store ptr %1, ptr %i, align 8
  br label %for.cond

for.cond:                                         ; preds = %for.inc, %if.end
  %2 = load ptr, ptr %i, align 8
  %tobool3 = icmp ne ptr %2, null
  br i1 %tobool3, label %for.body, label %for.end

for.body:                                         ; preds = %for.cond
  %3 = load ptr, ptr %i, align 8
  %name = getelementptr inbounds %"struct.pugi::xml_node_struct", ptr %3, i32 0, i32 1
  %4 = load ptr, ptr %name, align 8
  store ptr %4, ptr %iname, align 8
  %5 = load ptr, ptr %i, align 8
  %_root4 = getelementptr inbounds %"class.pugi::xml_node", ptr %this1, i32 0, i32 0
  %6 = load ptr, ptr %_root4, align 8
  %cmp = icmp ne ptr %5, %6
  %conv = zext i1 %cmp to i64
  %7 = load i64, ptr %offset, align 8
  %add = add i64 %7, %conv
  store i64 %add, ptr %offset, align 8
  %8 = load ptr, ptr %iname, align 8
  %tobool5 = icmp ne ptr %8, null
  br i1 %tobool5, label %cond.true, label %cond.false

cond.true:                                        ; preds = %for.body
  %9 = load ptr, ptr %iname, align 8
  %call = call noundef i64 @_ZN4pugi4impl12_GLOBAL__N_19strlengthEPKc(ptr noundef %9)
  br label %cond.end

cond.false:                                       ; preds = %for.body
  br label %cond.end

cond.end:                                         ; preds = %cond.false, %cond.true
  %cond = phi i64 [ %call, %cond.true ], [ 0, %cond.false ]
  %10 = load i64, ptr %offset, align 8
  %add6 = add i64 %10, %cond
  store i64 %add6, ptr %offset, align 8
  br label %for.inc

for.inc:                                          ; preds = %cond.end
  %11 = load ptr, ptr %i, align 8
  %parent = getelementptr inbounds %"struct.pugi::xml_node_struct", ptr %11, i32 0, i32 3
  %12 = load ptr, ptr %parent, align 8
  store ptr %12, ptr %i, align 8
  br label %for.cond, !llvm.loop !24

for.end:                                          ; preds = %for.cond
  store i1 false, ptr %nrvo, align 1
  call void @_ZNSt7__cxx1112basic_stringIcSt11char_traitsIcESaIcEEC1Ev(ptr noundef nonnull align 8 dereferenceable(32) %agg.result) #9
  %13 = load i64, ptr %offset, align 8
  invoke void @_ZNSt7__cxx1112basic_stringIcSt11char_traitsIcESaIcEE6resizeEm(ptr noundef nonnull align 8 dereferenceable(32) %agg.result, i64 noundef %13)
          to label %invoke.cont unwind label %lpad

invoke.cont:                                      ; preds = %for.end
  %_root7 = getelementptr inbounds %"class.pugi::xml_node", ptr %this1, i32 0, i32 0
  %14 = load ptr, ptr %_root7, align 8
  store ptr %14, ptr %j, align 8
  br label %for.cond8

for.cond8:                                        ; preds = %for.inc25, %invoke.cont
  %15 = load ptr, ptr %j, align 8
  %tobool9 = icmp ne ptr %15, null
  br i1 %tobool9, label %for.body10, label %for.end27

for.body10:                                       ; preds = %for.cond8
  %16 = load ptr, ptr %j, align 8
  %_root11 = getelementptr inbounds %"class.pugi::xml_node", ptr %this1, i32 0, i32 0
  %17 = load ptr, ptr %_root11, align 8
  %cmp12 = icmp ne ptr %16, %17
  br i1 %cmp12, label %if.then13, label %if.end16

if.then13:                                        ; preds = %for.body10
  %18 = load i8, ptr %delimiter.addr, align 1
  %19 = load i64, ptr %offset, align 8
  %dec = add i64 %19, -1
  store i64 %dec, ptr %offset, align 8
  %call15 = invoke noundef nonnull align 1 dereferenceable(1) ptr @_ZNSt7__cxx1112basic_stringIcSt11char_traitsIcESaIcEEixEm(ptr noundef nonnull align 8 dereferenceable(32) %agg.result, i64 noundef %dec)
          to label %invoke.cont14 unwind label %lpad

invoke.cont14:                                    ; preds = %if.then13
  store i8 %18, ptr %call15, align 1
  br label %if.end16

lpad:                                             ; preds = %invoke.cont20, %if.then19, %if.then13, %for.end
  %20 = landingpad { ptr, i32 }
          cleanup
  %21 = extractvalue { ptr, i32 } %20, 0
  store ptr %21, ptr %exn.slot, align 8
  %22 = extractvalue { ptr, i32 } %20, 1
  store i32 %22, ptr %ehselector.slot, align 4
  call void @_ZNSt7__cxx1112basic_stringIcSt11char_traitsIcESaIcEED1Ev(ptr noundef nonnull align 8 dereferenceable(32) %agg.result) #9
  br label %eh.resume

if.end16:                                         ; preds = %invoke.cont14, %for.body10
  %23 = load ptr, ptr %j, align 8
  %name17 = getelementptr inbounds %"struct.pugi::xml_node_struct", ptr %23, i32 0, i32 1
  %24 = load ptr, ptr %name17, align 8
  store ptr %24, ptr %jname, align 8
  %25 = load ptr, ptr %jname, align 8
  %tobool18 = icmp ne ptr %25, null
  br i1 %tobool18, label %if.then19, label %if.end24

if.then19:                                        ; preds = %if.end16
  %26 = load ptr, ptr %jname, align 8
  %call21 = invoke noundef i64 @_ZN4pugi4impl12_GLOBAL__N_19strlengthEPKc(ptr noundef %26)
          to label %invoke.cont20 unwind label %lpad

invoke.cont20:                                    ; preds = %if.then19
  store i64 %call21, ptr %length, align 8
  %27 = load i64, ptr %length, align 8
  %28 = load i64, ptr %offset, align 8
  %sub = sub i64 %28, %27
  store i64 %sub, ptr %offset, align 8
  %29 = load i64, ptr %offset, align 8
  %call23 = invoke noundef nonnull align 1 dereferenceable(1) ptr @_ZNSt7__cxx1112basic_stringIcSt11char_traitsIcESaIcEEixEm(ptr noundef nonnull align 8 dereferenceable(32) %agg.result, i64 noundef %29)
          to label %invoke.cont22 unwind label %lpad

invoke.cont22:                                    ; preds = %invoke.cont20
  %30 = load ptr, ptr %jname, align 8
  %31 = load i64, ptr %length, align 8
  %mul = mul i64 %31, 1
  call void @llvm.memcpy.p0.p0.i64(ptr align 1 %call23, ptr align 1 %30, i64 %mul, i1 false)
  br label %if.end24

if.end24:                                         ; preds = %invoke.cont22, %if.end16
  br label %for.inc25

for.inc25:                                        ; preds = %if.end24
  %32 = load ptr, ptr %j, align 8
  %parent26 = getelementptr inbounds %"struct.pugi::xml_node_struct", ptr %32, i32 0, i32 3
  %33 = load ptr, ptr %parent26, align 8
  store ptr %33, ptr %j, align 8
  br label %for.cond8, !llvm.loop !25

for.end27:                                        ; preds = %for.cond8
  store i1 true, ptr %nrvo, align 1
  %nrvo.val = load i1, ptr %nrvo, align 1
  br i1 %nrvo.val, label %nrvo.skipdtor, label %nrvo.unused

nrvo.unused:                                      ; preds = %for.end27
  call void @_ZNSt7__cxx1112basic_stringIcSt11char_traitsIcESaIcEED1Ev(ptr noundef nonnull align 8 dereferenceable(32) %agg.result) #9
  br label %nrvo.skipdtor

nrvo.skipdtor:                                    ; preds = %nrvo.unused, %for.end27
  br label %return

return:                                           ; preds = %nrvo.skipdtor, %if.then
  ret void

eh.resume:                                        ; preds = %lpad
  %exn = load ptr, ptr %exn.slot, align 8
  %sel = load i32, ptr %ehselector.slot, align 4
  %lpad.val = insertvalue { ptr, i32 } poison, ptr %exn, 0
  %lpad.val28 = insertvalue { ptr, i32 } %lpad.val, i32 %sel, 1
  resume { ptr, i32 } %lpad.val28
}