; Function Attrs: mustprogress uwtable
define void @_ZNK4pugi8xml_node4pathB5cxx11Ec(ptr noalias sret(%"class.std::__cxx11::basic_string") align 8 %agg.result, ptr nocapture noundef nonnull readonly align 8 dereferenceable(8) %this, i8 noundef signext %delimiter) local_unnamed_addr #6 align 2 personality ptr @__gxx_personality_v0 {
entry:
  %0 = load ptr, ptr %this, align 8
  %tobool.not = icmp eq ptr %0, null
  br i1 %tobool.not, label %if.then, label %for.body

if.then:                                          ; preds = %entry
  tail call void @_ZNSt7__cxx1112basic_stringIcSt11char_traitsIcESaIcEEC1Ev(ptr noundef nonnull align 8 dereferenceable(32) %agg.result) #42
  br label %return

for.body:                                         ; preds = %entry, %cond.end
  %offset.022 = phi i64 [ %add6, %cond.end ], [ 0, %entry ]
  %i.021 = phi ptr [ %2, %cond.end ], [ %0, %entry ]
  %name = getelementptr inbounds i8, ptr %i.021, i64 8
  %1 = load ptr, ptr %name, align 8
  %cmp = icmp ne ptr %i.021, %0
  %conv = zext i1 %cmp to i64
  %add = add i64 %offset.022, %conv
  %tobool5.not = icmp eq ptr %1, null
  br i1 %tobool5.not, label %cond.end, label %cond.true

cond.true:                                        ; preds = %for.body
  %call.i = tail call noundef i64 @strlen(ptr noundef nonnull dereferenceable(1) %1) #43
  br label %cond.end

cond.end:                                         ; preds = %for.body, %cond.true
  %cond = phi i64 [ %call.i, %cond.true ], [ 0, %for.body ]
  %add6 = add i64 %add, %cond
  %parent = getelementptr inbounds i8, ptr %i.021, i64 24
  %2 = load ptr, ptr %parent, align 8
  %tobool3.not = icmp eq ptr %2, null
  br i1 %tobool3.not, label %for.end, label %for.body, !llvm.loop !95

for.end:                                          ; preds = %cond.end
  tail call void @_ZNSt7__cxx1112basic_stringIcSt11char_traitsIcESaIcEEC1Ev(ptr noundef nonnull align 8 dereferenceable(32) %agg.result) #42
  invoke void @_ZNSt7__cxx1112basic_stringIcSt11char_traitsIcESaIcEE6resizeEm(ptr noundef nonnull align 8 dereferenceable(32) %agg.result, i64 noundef %add6)
          to label %for.cond8.preheader unwind label %lpad.loopexit.split-lp

for.cond8.preheader:                              ; preds = %for.end
  %j.023 = load ptr, ptr %this, align 8
  %tobool9.not24 = icmp eq ptr %j.023, null
  br i1 %tobool9.not24, label %return, label %for.body10

for.body10:                                       ; preds = %for.cond8.preheader, %for.inc25
  %j.026 = phi ptr [ %j.0, %for.inc25 ], [ %j.023, %for.cond8.preheader ]
  %offset.125 = phi i64 [ %offset.3, %for.inc25 ], [ %add6, %for.cond8.preheader ]
  %3 = load ptr, ptr %this, align 8
  %cmp12.not = icmp eq ptr %j.026, %3
  br i1 %cmp12.not, label %if.end16, label %if.then13

if.then13:                                        ; preds = %for.body10
  %dec = add i64 %offset.125, -1
  %call15 = invoke noundef nonnull align 1 dereferenceable(1) ptr @_ZNSt7__cxx1112basic_stringIcSt11char_traitsIcESaIcEEixEm(ptr noundef nonnull align 8 dereferenceable(32) %agg.result, i64 noundef %dec)
          to label %invoke.cont14 unwind label %lpad.loopexit

invoke.cont14:                                    ; preds = %if.then13
  store i8 %delimiter, ptr %call15, align 1
  br label %if.end16

lpad.loopexit:                                    ; preds = %if.then13, %if.then19
  %lpad.loopexit19 = landingpad { ptr, i32 }
          cleanup
  br label %lpad

lpad.loopexit.split-lp:                           ; preds = %for.end
  %lpad.loopexit.split-lp20 = landingpad { ptr, i32 }
          cleanup
  br label %lpad

lpad:                                             ; preds = %lpad.loopexit.split-lp, %lpad.loopexit
  %lpad.phi = phi { ptr, i32 } [ %lpad.loopexit19, %lpad.loopexit ], [ %lpad.loopexit.split-lp20, %lpad.loopexit.split-lp ]
  tail call void @_ZNSt7__cxx1112basic_stringIcSt11char_traitsIcESaIcEED1Ev(ptr noundef nonnull align 8 dereferenceable(32) %agg.result) #42
  resume { ptr, i32 } %lpad.phi

if.end16:                                         ; preds = %invoke.cont14, %for.body10
  %offset.2 = phi i64 [ %dec, %invoke.cont14 ], [ %offset.125, %for.body10 ]
  %name17 = getelementptr inbounds i8, ptr %j.026, i64 8
  %4 = load ptr, ptr %name17, align 8
  %tobool18.not = icmp eq ptr %4, null
  br i1 %tobool18.not, label %for.inc25, label %if.then19

if.then19:                                        ; preds = %if.end16
  %call.i18 = tail call noundef i64 @strlen(ptr noundef nonnull dereferenceable(1) %4) #43
  %sub = sub i64 %offset.2, %call.i18
  %call23 = invoke noundef nonnull align 1 dereferenceable(1) ptr @_ZNSt7__cxx1112basic_stringIcSt11char_traitsIcESaIcEEixEm(ptr noundef nonnull align 8 dereferenceable(32) %agg.result, i64 noundef %sub)
          to label %invoke.cont22 unwind label %lpad.loopexit

invoke.cont22:                                    ; preds = %if.then19
  tail call void @llvm.memcpy.p0.p0.i64(ptr nonnull align 1 %call23, ptr nonnull align 1 %4, i64 %call.i18, i1 false)
  br label %for.inc25

for.inc25:                                        ; preds = %if.end16, %invoke.cont22
  %offset.3 = phi i64 [ %sub, %invoke.cont22 ], [ %offset.2, %if.end16 ]
  %parent26 = getelementptr inbounds i8, ptr %j.026, i64 24
  %j.0 = load ptr, ptr %parent26, align 8
  %tobool9.not = icmp eq ptr %j.0, null
  br i1 %tobool9.not, label %return, label %for.body10, !llvm.loop !96

return:                                           ; preds = %for.inc25, %for.cond8.preheader, %if.then
  ret void
}